; Function Attrs: mustprogress uwtable
define void @u_enumCharTypes_77(ptr noundef %0, ptr noundef %1) local_unnamed_addr #2 {
  %3 = alloca %struct._EnumTypeCallback, align 8
  call void @llvm.lifetime.start.p0(i64 16, ptr nonnull %3) #7
  %4 = icmp eq ptr %0, null
  br i1 %4, label %7, label %5

5:                                                ; preds = %2
  store ptr %0, ptr %3, align 8, !tbaa !7
  %6 = getelementptr inbounds nuw i8, ptr %3, i64 8
  store ptr %1, ptr %6, align 8, !tbaa !10
  call void @utrie2_enum_77(ptr noundef nonnull @_ZL9propsTrie, ptr noundef nonnull @_ZL14_enumTypeValuePKvj, ptr noundef nonnull @_ZL14_enumTypeRangePKviij, ptr noundef nonnull %3)
  br label %7

7:                                                ; preds = %2, %5
  call void @llvm.lifetime.end.p0(i64 16, ptr nonnull %3) #7
  ret void
}